target datalayout = "e-m:e-p270:32:32-p271:32:32-p272:64:64-i64:64-i128:128-f80:128-n8:16:32:64-S128"
target triple = "x86_64-pc-linux-gnu"

%struct.asn1_string_st = type { i32, i32, ptr, i64 }

; Function Attrs: nounwind uwtable
define dso_local i32 @ASN1_TIME_check(ptr noundef %0) #0 {
  %2 = alloca i32, align 4
  %3 = alloca ptr, align 8
  store ptr %0, ptr %3, align 8, !tbaa !13
  %4 = load ptr, ptr %3, align 8, !tbaa !13
  %5 = getelementptr inbounds nuw %struct.asn1_string_st, ptr %4, i32 0, i32 1
  %6 = load i32, ptr %5, align 4, !tbaa !20
  %7 = icmp eq i32 %6, 24
  br i1 %7, label %8, label %11

8:                                                ; preds = %1
  %9 = load ptr, ptr %3, align 8, !tbaa !13
  %10 = call i32 @ASN1_GENERALIZEDTIME_check(ptr noundef %9)
  store i32 %10, ptr %2, align 4
  br label %21

11:                                               ; preds = %1
  %12 = load ptr, ptr %3, align 8, !tbaa !13
  %13 = getelementptr inbounds nuw %struct.asn1_string_st, ptr %12, i32 0, i32 1
  %14 = load i32, ptr %13, align 4, !tbaa !20
  %15 = icmp eq i32 %14, 23
  br i1 %15, label %16, label %19

16:                                               ; preds = %11
  %17 = load ptr, ptr %3, align 8, !tbaa !13
  %18 = call i32 @ASN1_UTCTIME_check(ptr noundef %17)
  store i32 %18, ptr %2, align 4
  br label %21

19:                                               ; preds = %11
  br label %20

20:                                               ; preds = %19
  store i32 0, ptr %2, align 4
  br label %21

21:                                               ; preds = %20, %16, %8
  %22 = load i32, ptr %2, align 4
  ret i32 %22
}