; Function Attrs: nounwind uwtable
define dso_local i32 @ASN1_TIME_check(ptr noundef %0) local_unnamed_addr #1 {
  %2 = getelementptr inbounds nuw i8, ptr %0, i64 4
  %3 = load i32, ptr %2, align 4, !tbaa !4
  switch i32 %3, label %8 [
    i32 24, label %4
    i32 23, label %6
  ]

4:                                                ; preds = %1
  %5 = tail call i32 @ASN1_GENERALIZEDTIME_check(ptr noundef nonnull %0) #8
  br label %8

6:                                                ; preds = %1
  %7 = tail call i32 @ASN1_UTCTIME_check(ptr noundef nonnull %0) #8
  br label %8

8:                                                ; preds = %1, %6, %4
  %.0 = phi i32 [ %5, %4 ], [ %7, %6 ], [ 0, %1 ]
  ret i32 %.0
}